target datalayout = "e-m:e-p270:32:32-p271:32:32-p272:64:64-i64:64-i128:128-f80:128-n8:16:32:64-S128"
target triple = "x86_64-unknown-linux-gnu"

%struct.MemoryRegion = type { %struct.Object, i8, i8, i8, i8, i8, i8, i8, i8, i8, i8, ptr, ptr, ptr, ptr, ptr, ptr, i32, i128, i64, ptr, i64, i8, i8, i8, i8, i8, ptr, i64, i32, %union.anon, %union.anon.1, %union.anon.2, ptr, i32, ptr, ptr, i8 }
%struct.Object = type { ptr, ptr, ptr, i32, ptr }
%union.anon = type { %struct.QTailQLink }
%struct.QTailQLink = type { ptr, ptr }
%union.anon.1 = type { %struct.QTailQLink }
%union.anon.2 = type { %struct.QTailQLink }
%struct.AddressSpace = type { %struct.rcu_head, ptr, ptr, ptr, i32, i32, ptr, %union.anon.18, %union.anon.19 }
%struct.rcu_head = type { ptr, ptr }
%union.anon.18 = type { %struct.QTailQLink }
%union.anon.19 = type { %struct.QTailQLink }
%struct.QemuEvent = type { i32, i8 }
%struct.MemTxAttrs = type { i32 }
%struct.MemoryRegionSection = type { i128, ptr, ptr, i64, i64, i8, i8, i8 }
%struct.rcu_reader_data = type { i64, i8, i32, %struct.anon.23, %struct.NotifierList }
%struct.anon.23 = type { ptr, ptr }
%struct.NotifierList = type { %struct.anon.24 }
%struct.anon.24 = type { ptr }

@address_space_memory = dso_local global %struct.AddressSpace zeroinitializer, align 8
@.str.79 = private unnamed_addr constant [100 x i8] c"/home/dtcxzyw/WorkSpace/Projects/compilers/llvm-opt-benchmark/bench/qemu/qemu/include/exec/memory.h\00", align 1
@__func__.address_space_to_flatview = private unnamed_addr constant [26 x i8] c"address_space_to_flatview\00", align 1
@.str.125 = private unnamed_addr constant [97 x i8] c"/home/dtcxzyw/WorkSpace/Projects/compilers/llvm-opt-benchmark/bench/qemu/qemu/include/qemu/rcu.h\00", align 1
@__func__.rcu_read_lock = private unnamed_addr constant [14 x i8] c"rcu_read_lock\00", align 1
@rcu_gp_ctr = external global i64, align 8
@.str.126 = private unnamed_addr constant [25 x i8] c"p_rcu_reader->depth != 0\00", align 1
@__PRETTY_FUNCTION__.rcu_read_unlock = private unnamed_addr constant [27 x i8] c"void rcu_read_unlock(void)\00", align 1
@__func__.rcu_read_unlock = private unnamed_addr constant [16 x i8] c"rcu_read_unlock\00", align 1
@rcu_gp_event = external global %struct.QemuEvent, align 4

; Function Attrs: nounwind sspstrong uwtable
define internal void @rcu_read_unlock() #0 {
entry:
  %p_rcu_reader = alloca ptr, align 8
  %.atomictmp = alloca i64, align 8
  %tmp = alloca i8, align 1
  %atomic-temp = alloca i8, align 1
  %.atomictmp23 = alloca i8, align 1
  %call = call ptr @get_ptr_rcu_reader()
  store ptr %call, ptr %p_rcu_reader, align 8
  %0 = load ptr, ptr %p_rcu_reader, align 8
  %depth = getelementptr inbounds %struct.rcu_reader_data, ptr %0, i32 0, i32 2
  %1 = load i32, ptr %depth, align 4
  %cmp = icmp ne i32 %1, 0
  br i1 %cmp, label %if.then, label %if.else

if.then:                                          ; preds = %entry
  br label %if.end

if.else:                                          ; preds = %entry
  call void @__assert_fail(ptr noundef @.str.126, ptr noundef @.str.125, i32 noundef 101, ptr noundef @__PRETTY_FUNCTION__.rcu_read_unlock) #13
  unreachable

if.end:                                           ; preds = %if.then
  %2 = load ptr, ptr %p_rcu_reader, align 8
  %depth1 = getelementptr inbounds %struct.rcu_reader_data, ptr %2, i32 0, i32 2
  %3 = load i32, ptr %depth1, align 4
  %dec = add i32 %3, -1
  store i32 %dec, ptr %depth1, align 4
  %cmp2 = icmp ugt i32 %dec, 0
  br i1 %cmp2, label %if.then3, label %if.end4

if.then3:                                         ; preds = %if.end
  br label %if.end25

if.end4:                                          ; preds = %if.end
  br label %do.body

do.body:                                          ; preds = %if.end4
  br label %while.cond

while.cond:                                       ; preds = %do.end, %do.body
  br i1 false, label %while.body, label %while.end

while.body:                                       ; preds = %while.cond
  br label %do.body5

do.body5:                                         ; preds = %while.body
  call void @g_assertion_message_expr(ptr noundef null, ptr noundef @.str.125, i32 noundef 111, ptr noundef @__func__.rcu_read_unlock, ptr noundef null) #14
  unreachable

do.end:                                           ; No predecessors!
  br label %while.cond

while.end:                                        ; preds = %while.cond
  %4 = load ptr, ptr %p_rcu_reader, align 8
  %ctr = getelementptr inbounds %struct.rcu_reader_data, ptr %4, i32 0, i32 0
  store i64 0, ptr %.atomictmp, align 8
  %5 = load i64, ptr %.atomictmp, align 8
  store atomic i64 %5, ptr %ctr release, align 8
  br label %do.end6

do.end6:                                          ; preds = %while.end
  call void asm sideeffect "", "~{memory},~{dirflag},~{fpsr},~{flags}"() #15, !srcloc !61
  fence seq_cst
  br label %while.cond7

while.cond7:                                      ; preds = %do.end10, %do.end6
  br i1 false, label %while.body8, label %while.end11

while.body8:                                      ; preds = %while.cond7
  br label %do.body9

do.body9:                                         ; preds = %while.body8
  call void @g_assertion_message_expr(ptr noundef null, ptr noundef @.str.125, i32 noundef 115, ptr noundef @__func__.rcu_read_unlock, ptr noundef null) #14
  unreachable

do.end10:                                         ; No predecessors!
  br label %while.cond7

while.end11:                                      ; preds = %while.cond7
  %6 = load ptr, ptr %p_rcu_reader, align 8
  %waiting = getelementptr inbounds %struct.rcu_reader_data, ptr %6, i32 0, i32 1
  %7 = load atomic i8, ptr %waiting monotonic, align 8
  store i8 %7, ptr %atomic-temp, align 1
  %8 = load i8, ptr %atomic-temp, align 1
  %tobool = trunc i8 %8 to i1
  %frombool = zext i1 %tobool to i8
  store i8 %frombool, ptr %tmp, align 1
  %9 = load i8, ptr %tmp, align 1
  %tobool12 = trunc i8 %9 to i1
  %lnot = xor i1 %tobool12, true
  %lnot13 = xor i1 %lnot, true
  %lnot.ext = zext i1 %lnot13 to i32
  %conv = sext i32 %lnot.ext to i64
  %tobool14 = icmp ne i64 %conv, 0
  br i1 %tobool14, label %if.then15, label %if.end25

if.then15:                                        ; preds = %while.end11
  br label %do.body16

do.body16:                                        ; preds = %if.then15
  br label %while.cond17

while.cond17:                                     ; preds = %do.end20, %do.body16
  br i1 false, label %while.body18, label %while.end21

while.body18:                                     ; preds = %while.cond17
  br label %do.body19

do.body19:                                        ; preds = %while.body18
  call void @g_assertion_message_expr(ptr noundef null, ptr noundef @.str.125, i32 noundef 116, ptr noundef @__func__.rcu_read_unlock, ptr noundef null) #14
  unreachable

do.end20:                                         ; No predecessors!
  br label %while.cond17

while.end21:                                      ; preds = %while.cond17
  %10 = load ptr, ptr %p_rcu_reader, align 8
  %waiting22 = getelementptr inbounds %struct.rcu_reader_data, ptr %10, i32 0, i32 1
  store i8 0, ptr %.atomictmp23, align 1
  %11 = load i8, ptr %.atomictmp23, align 1
  store atomic i8 %11, ptr %waiting22 monotonic, align 8
  br label %do.end24

do.end24:                                         ; preds = %while.end21
  call void @qemu_event_set(ptr noundef @rcu_gp_event)
  br label %if.end25

if.end25:                                         ; preds = %do.end24, %while.end11, %if.then3
  ret void
}

; Function Attrs: nounwind sspstrong uwtable
define internal void @rcu_read_auto_unlock(ptr noundef %r) #0 {
entry:
  %r.addr = alloca ptr, align 8
  store ptr %r, ptr %r.addr, align 8
  call void @rcu_read_unlock()
  ret void
}

; Function Attrs: nounwind sspstrong uwtable
define internal void @glib_autoptr_clear_RCUReadAuto(ptr noundef %_ptr) #0 {
entry:
  %_ptr.addr = alloca ptr, align 8
  store ptr %_ptr, ptr %_ptr.addr, align 8
  %0 = load ptr, ptr %_ptr.addr, align 8
  %tobool = icmp ne ptr %0, null
  br i1 %tobool, label %if.then, label %if.end

if.then:                                          ; preds = %entry
  %1 = load ptr, ptr %_ptr.addr, align 8
  call void @rcu_read_auto_unlock(ptr noundef %1)
  br label %if.end

if.end:                                           ; preds = %if.then, %entry
  ret void
}

; Function Attrs: nounwind sspstrong uwtable
define dso_local ptr @flatview_translate(ptr noundef %fv, i64 noundef %addr, ptr noundef %xlat, ptr noundef %plen, i1 noundef zeroext %is_write, i32 %attrs.coerce) #0 {
entry:
  %attrs = alloca %struct.MemTxAttrs, align 4
  %fv.addr = alloca ptr, align 8
  %addr.addr = alloca i64, align 8
  %xlat.addr = alloca ptr, align 8
  %plen.addr = alloca ptr, align 8
  %is_write.addr = alloca i8, align 1
  %mr = alloca ptr, align 8
  %section = alloca %struct.MemoryRegionSection, align 16
  %as = alloca ptr, align 8
  %tmp = alloca %struct.MemoryRegionSection, align 16
  %coerce.dive = getelementptr inbounds %struct.MemTxAttrs, ptr %attrs, i32 0, i32 0
  store i32 %attrs.coerce, ptr %coerce.dive, align 4
  store ptr %fv, ptr %fv.addr, align 8
  store i64 %addr, ptr %addr.addr, align 8
  store ptr %xlat, ptr %xlat.addr, align 8
  store ptr %plen, ptr %plen.addr, align 8
  %frombool = zext i1 %is_write to i8
  store i8 %frombool, ptr %is_write.addr, align 1
  store ptr null, ptr %as, align 8
  %0 = load ptr, ptr %fv.addr, align 8
  %1 = load i64, ptr %addr.addr, align 8
  %2 = load ptr, ptr %xlat.addr, align 8
  %3 = load ptr, ptr %plen.addr, align 8
  %4 = load i8, ptr %is_write.addr, align 1
  %tobool = trunc i8 %4 to i1
  %coerce.dive1 = getelementptr inbounds %struct.MemTxAttrs, ptr %attrs, i32 0, i32 0
  %5 = load i32, ptr %coerce.dive1, align 4
  call void @flatview_do_translate(ptr sret(%struct.MemoryRegionSection) align 16 %tmp, ptr noundef %0, i64 noundef %1, ptr noundef %2, ptr noundef %3, ptr noundef null, i1 noundef zeroext %tobool, i1 noundef zeroext true, ptr noundef %as, i32 %5)
  call void @llvm.memcpy.p0.p0.i64(ptr align 16 %section, ptr align 16 %tmp, i64 64, i1 false)
  %mr2 = getelementptr inbounds %struct.MemoryRegionSection, ptr %section, i32 0, i32 1
  %6 = load ptr, ptr %mr2, align 16
  store ptr %6, ptr %mr, align 8
  %7 = load ptr, ptr %mr, align 8
  ret ptr %7
}

; Function Attrs: nounwind sspstrong uwtable
define internal ptr @address_space_to_flatview(ptr noundef %as) #0 {
entry:
  %as.addr = alloca ptr, align 8
  %_val0 = alloca ptr, align 8
  %tmp = alloca ptr, align 8
  store ptr %as, ptr %as.addr, align 8
  br label %while.cond

while.cond:                                       ; preds = %do.end, %entry
  br i1 false, label %while.body, label %while.end

while.body:                                       ; preds = %while.cond
  br label %do.body

do.body:                                          ; preds = %while.body
  call void @g_assertion_message_expr(ptr noundef null, ptr noundef @.str.79, i32 noundef 1146, ptr noundef @__func__.address_space_to_flatview, ptr noundef null) #14
  unreachable

do.end:                                           ; No predecessors!
  br label %while.cond

while.end:                                        ; preds = %while.cond
  %0 = load ptr, ptr %as.addr, align 8
  %current_map = getelementptr inbounds %struct.AddressSpace, ptr %0, i32 0, i32 3
  %1 = load atomic i64, ptr %current_map monotonic, align 8
  store i64 %1, ptr %_val0, align 8
  call void asm sideeffect "", "~{memory},~{dirflag},~{fpsr},~{flags}"() #15, !srcloc !7
  %2 = load ptr, ptr %_val0, align 8
  store ptr %2, ptr %tmp, align 8
  %3 = load ptr, ptr %tmp, align 8
  ret ptr %3
}

; Function Attrs: nounwind sspstrong uwtable
define internal void @rcu_read_lock() #0 {
entry:
  %p_rcu_reader = alloca ptr, align 8
  %ctr = alloca i32, align 4
  %tmp = alloca i64, align 8
  %atomic-temp = alloca i64, align 8
  %.atomictmp = alloca i64, align 8
  %call = call ptr @get_ptr_rcu_reader()
  store ptr %call, ptr %p_rcu_reader, align 8
  %0 = load ptr, ptr %p_rcu_reader, align 8
  %depth = getelementptr inbounds %struct.rcu_reader_data, ptr %0, i32 0, i32 2
  %1 = load i32, ptr %depth, align 4
  %inc = add i32 %1, 1
  store i32 %inc, ptr %depth, align 4
  %cmp = icmp ugt i32 %1, 0
  br i1 %cmp, label %if.then, label %if.end

if.then:                                          ; preds = %entry
  br label %return

if.end:                                           ; preds = %entry
  br label %while.cond

while.cond:                                       ; preds = %do.end, %if.end
  br i1 false, label %while.body, label %while.end

while.body:                                       ; preds = %while.cond
  br label %do.body

do.body:                                          ; preds = %while.body
  call void @g_assertion_message_expr(ptr noundef null, ptr noundef @.str.125, i32 noundef 87, ptr noundef @__func__.rcu_read_lock, ptr noundef null) #14
  unreachable

do.end:                                           ; No predecessors!
  br label %while.cond

while.end:                                        ; preds = %while.cond
  %2 = load atomic i64, ptr @rcu_gp_ctr monotonic, align 8
  store i64 %2, ptr %atomic-temp, align 8
  %3 = load i64, ptr %atomic-temp, align 8
  store i64 %3, ptr %tmp, align 8
  %4 = load i64, ptr %tmp, align 8
  %conv = trunc i64 %4 to i32
  store i32 %conv, ptr %ctr, align 4
  br label %do.body1

do.body1:                                         ; preds = %while.end
  br label %while.cond2

while.cond2:                                      ; preds = %do.end5, %do.body1
  br i1 false, label %while.body3, label %while.end6

while.body3:                                      ; preds = %while.cond2
  br label %do.body4

do.body4:                                         ; preds = %while.body3
  call void @g_assertion_message_expr(ptr noundef null, ptr noundef @.str.125, i32 noundef 88, ptr noundef @__func__.rcu_read_lock, ptr noundef null) #14
  unreachable

do.end5:                                          ; No predecessors!
  br label %while.cond2

while.end6:                                       ; preds = %while.cond2
  %5 = load ptr, ptr %p_rcu_reader, align 8
  %ctr7 = getelementptr inbounds %struct.rcu_reader_data, ptr %5, i32 0, i32 0
  %6 = load i32, ptr %ctr, align 4
  %conv8 = zext i32 %6 to i64
  store i64 %conv8, ptr %.atomictmp, align 8
  %7 = load i64, ptr %.atomictmp, align 8
  store atomic i64 %7, ptr %ctr7 monotonic, align 8
  br label %do.end9

do.end9:                                          ; preds = %while.end6
  call void asm sideeffect "", "~{memory},~{dirflag},~{fpsr},~{flags}"() #15, !srcloc !60
  fence seq_cst
  br label %return

return:                                           ; preds = %do.end9, %if.then
  ret void
}

; Function Attrs: nounwind sspstrong uwtable
define internal void @glib_autoptr_cleanup_RCUReadAuto(ptr noundef %_ptr) #0 {
entry:
  %_ptr.addr = alloca ptr, align 8
  store ptr %_ptr, ptr %_ptr.addr, align 8
  %0 = load ptr, ptr %_ptr.addr, align 8
  %1 = load ptr, ptr %0, align 8
  call void @glib_autoptr_clear_RCUReadAuto(ptr noundef %1)
  ret void
}

; Function Attrs: nounwind sspstrong uwtable
define internal zeroext i1 @memory_region_is_romd(ptr noundef %mr) #0 {
entry:
  %mr.addr = alloca ptr, align 8
  store ptr %mr, ptr %mr.addr, align 8
  %0 = load ptr, ptr %mr.addr, align 8
  %rom_device = getelementptr inbounds %struct.MemoryRegion, ptr %0, i32 0, i32 6
  %1 = load i8, ptr %rom_device, align 1
  %tobool = trunc i8 %1 to i1
  br i1 %tobool, label %land.rhs, label %land.end

land.rhs:                                         ; preds = %entry
  %2 = load ptr, ptr %mr.addr, align 8
  %romd_mode = getelementptr inbounds %struct.MemoryRegion, ptr %2, i32 0, i32 1
  %3 = load i8, ptr %romd_mode, align 8
  %tobool1 = trunc i8 %3 to i1
  br label %land.end

land.end:                                         ; preds = %land.rhs, %entry
  %4 = phi i1 [ false, %entry ], [ %tobool1, %land.rhs ]
  ret i1 %4
}

; Function Attrs: nounwind sspstrong uwtable
define internal zeroext i1 @memory_region_is_ram(ptr noundef %mr) #0 {
entry:
  %mr.addr = alloca ptr, align 8
  store ptr %mr, ptr %mr.addr, align 8
  %0 = load ptr, ptr %mr.addr, align 8
  %ram = getelementptr inbounds %struct.MemoryRegion, ptr %0, i32 0, i32 2
  %1 = load i8, ptr %ram, align 1
  %tobool = trunc i8 %1 to i1
  ret i1 %tobool
}

; Function Attrs: nounwind sspstrong uwtable
define internal ptr @address_space_translate(ptr noundef %as, i64 noundef %addr, ptr noundef %xlat, ptr noundef %len, i1 noundef zeroext %is_write, i32 %attrs.coerce) #0 {
entry:
  %attrs = alloca %struct.MemTxAttrs, align 4
  %as.addr = alloca ptr, align 8
  %addr.addr = alloca i64, align 8
  %xlat.addr = alloca ptr, align 8
  %len.addr = alloca ptr, align 8
  %is_write.addr = alloca i8, align 1
  %coerce.dive = getelementptr inbounds %struct.MemTxAttrs, ptr %attrs, i32 0, i32 0
  store i32 %attrs.coerce, ptr %coerce.dive, align 4
  store ptr %as, ptr %as.addr, align 8
  store i64 %addr, ptr %addr.addr, align 8
  store ptr %xlat, ptr %xlat.addr, align 8
  store ptr %len, ptr %len.addr, align 8
  %frombool = zext i1 %is_write to i8
  store i8 %frombool, ptr %is_write.addr, align 1
  %0 = load ptr, ptr %as.addr, align 8
  %call = call ptr @address_space_to_flatview(ptr noundef %0)
  %1 = load i64, ptr %addr.addr, align 8
  %2 = load ptr, ptr %xlat.addr, align 8
  %3 = load ptr, ptr %len.addr, align 8
  %4 = load i8, ptr %is_write.addr, align 1
  %tobool = trunc i8 %4 to i1
  %coerce.dive1 = getelementptr inbounds %struct.MemTxAttrs, ptr %attrs, i32 0, i32 0
  %5 = load i32, ptr %coerce.dive1, align 4
  %call2 = call ptr @flatview_translate(ptr noundef %call, i64 noundef %1, ptr noundef %2, ptr noundef %3, i1 noundef zeroext %tobool, i32 %5)
  ret ptr %call2
}

; Function Attrs: nounwind sspstrong uwtable
define internal ptr @rcu_read_auto_lock() #0 {
entry:
  call void @rcu_read_lock()
  %0 = inttoptr i64 1 to ptr
  ret ptr %0
}

; Function Attrs: nounwind sspstrong uwtable
define dso_local zeroext i1 @cpu_physical_memory_is_io(i64 noundef %phys_addr) #0 {
entry:
  %phys_addr.addr = alloca i64, align 8
  %mr = alloca ptr, align 8
  %l = alloca i64, align 8
  %_rcu_read_auto = alloca ptr, align 8
  %.compoundliteral = alloca %struct.MemTxAttrs, align 4
  store i64 %phys_addr, ptr %phys_addr.addr, align 8
  store i64 1, ptr %l, align 8
  %call = call ptr @rcu_read_auto_lock()
  store ptr %call, ptr %_rcu_read_auto, align 8
  %0 = load i64, ptr %phys_addr.addr, align 8
  %bf.load = load i32, ptr %.compoundliteral, align 4
  %bf.clear = and i32 %bf.load, -2
  %bf.set = or i32 %bf.clear, 1
  store i32 %bf.set, ptr %.compoundliteral, align 4
  %bf.load1 = load i32, ptr %.compoundliteral, align 4
  %bf.clear2 = and i32 %bf.load1, -3
  %bf.set3 = or i32 %bf.clear2, 0
  store i32 %bf.set3, ptr %.compoundliteral, align 4
  %bf.load4 = load i32, ptr %.compoundliteral, align 4
  %bf.clear5 = and i32 %bf.load4, -13
  %bf.set6 = or i32 %bf.clear5, 0
  store i32 %bf.set6, ptr %.compoundliteral, align 4
  %bf.load7 = load i32, ptr %.compoundliteral, align 4
  %bf.clear8 = and i32 %bf.load7, -17
  %bf.set9 = or i32 %bf.clear8, 0
  store i32 %bf.set9, ptr %.compoundliteral, align 4
  %bf.load10 = load i32, ptr %.compoundliteral, align 4
  %bf.clear11 = and i32 %bf.load10, -33
  %bf.set12 = or i32 %bf.clear11, 0
  store i32 %bf.set12, ptr %.compoundliteral, align 4
  %bf.load13 = load i32, ptr %.compoundliteral, align 4
  %bf.clear14 = and i32 %bf.load13, -4194241
  %bf.set15 = or i32 %bf.clear14, 0
  store i32 %bf.set15, ptr %.compoundliteral, align 4
  %bf.load16 = load i32, ptr %.compoundliteral, align 4
  %bf.clear17 = and i32 %bf.load16, -4194305
  %bf.set18 = or i32 %bf.clear17, 0
  store i32 %bf.set18, ptr %.compoundliteral, align 4
  %bf.load19 = load i32, ptr %.compoundliteral, align 4
  %bf.clear20 = and i32 %bf.load19, -8388609
  %bf.set21 = or i32 %bf.clear20, 0
  store i32 %bf.set21, ptr %.compoundliteral, align 4
  %bf.load22 = load i32, ptr %.compoundliteral, align 4
  %bf.clear23 = and i32 %bf.load22, -16777217
  %bf.set24 = or i32 %bf.clear23, 0
  store i32 %bf.set24, ptr %.compoundliteral, align 4
  %bf.load25 = load i32, ptr %.compoundliteral, align 4
  %bf.clear26 = and i32 %bf.load25, -33554433
  %bf.set27 = or i32 %bf.clear26, 0
  store i32 %bf.set27, ptr %.compoundliteral, align 4
  %coerce.dive = getelementptr inbounds %struct.MemTxAttrs, ptr %.compoundliteral, i32 0, i32 0
  %1 = load i32, ptr %coerce.dive, align 4
  %call28 = call ptr @address_space_translate(ptr noundef @address_space_memory, i64 noundef %0, ptr noundef %phys_addr.addr, ptr noundef %l, i1 noundef zeroext false, i32 %1)
  store ptr %call28, ptr %mr, align 8
  %2 = load ptr, ptr %mr, align 8
  %call29 = call zeroext i1 @memory_region_is_ram(ptr noundef %2)
  br i1 %call29, label %lor.end, label %lor.rhs

lor.rhs:                                          ; preds = %entry
  %3 = load ptr, ptr %mr, align 8
  %call30 = call zeroext i1 @memory_region_is_romd(ptr noundef %3)
  br label %lor.end

lor.end:                                          ; preds = %lor.rhs, %entry
  %4 = phi i1 [ true, %entry ], [ %call30, %lor.rhs ]
  %lnot = xor i1 %4, true
  call void @glib_autoptr_cleanup_RCUReadAuto(ptr noundef %_rcu_read_auto)
  ret i1 %lnot
}