; Function Attrs: nounwind sspstrong uwtable
define dso_local zeroext i1 @cpu_physical_memory_is_io(i64 noundef %phys_addr) local_unnamed_addr #0 {
entry:
  %as.i.i = alloca ptr, align 8
  %tmp.i.i = alloca %struct.MemoryRegionSection, align 16
  %phys_addr.addr = alloca i64, align 8
  %l = alloca i64, align 8
  store i64 %phys_addr, ptr %phys_addr.addr, align 8
  store i64 1, ptr %l, align 8
  %call.i.i = tail call ptr @get_ptr_rcu_reader() #28
  %depth.i.i = getelementptr inbounds nuw i8, ptr %call.i.i, i64 12
  %0 = load i32, ptr %depth.i.i, align 4
  %inc.i.i = add i32 %0, 1
  store i32 %inc.i.i, ptr %depth.i.i, align 4
  %cmp.not.i.i = icmp eq i32 %0, 0
  br i1 %cmp.not.i.i, label %while.end.i.i, label %rcu_read_auto_lock.exit

while.end.i.i:                                    ; preds = %entry
  %1 = load atomic i64, ptr @rcu_gp_ctr monotonic, align 8
  %conv8.i.i = and i64 %1, 4294967295
  store atomic i64 %conv8.i.i, ptr %call.i.i monotonic, align 8
  tail call void asm sideeffect "", "~{memory},~{dirflag},~{fpsr},~{flags}"() #28, !srcloc !15
  fence seq_cst
  %.pre = load i64, ptr %phys_addr.addr, align 8
  br label %rcu_read_auto_lock.exit

rcu_read_auto_lock.exit:                          ; preds = %entry, %while.end.i.i
  %2 = phi i64 [ %phys_addr, %entry ], [ %.pre, %while.end.i.i ]
  %3 = load atomic i64, ptr getelementptr inbounds nuw (i8, ptr @address_space_memory, i64 32) monotonic, align 8
  %4 = inttoptr i64 %3 to ptr
  tail call void asm sideeffect "", "~{memory},~{dirflag},~{fpsr},~{flags}"() #28, !srcloc !7
  call void @llvm.lifetime.start.p0(i64 8, ptr nonnull %as.i.i)
  call void @llvm.lifetime.start.p0(i64 64, ptr nonnull %tmp.i.i)
  %5 = getelementptr i8, ptr %4, i64 40
  %fv.val.i.i = load ptr, ptr %5, align 8
  call fastcc void @flatview_do_translate(ptr noalias align 16 %tmp.i.i, ptr %fv.val.i.i, i64 noundef %2, ptr noundef nonnull %phys_addr.addr, ptr noundef nonnull %l, ptr noundef null, i1 noundef zeroext false, i1 noundef zeroext true, ptr noundef %as.i.i, i32 1)
  %section.sroa.1.0.tmp.sroa_idx.i.i = getelementptr inbounds nuw i8, ptr %tmp.i.i, i64 16
  %section.sroa.1.0.copyload.i.i = load ptr, ptr %section.sroa.1.0.tmp.sroa_idx.i.i, align 16
  call void @llvm.lifetime.end.p0(i64 8, ptr nonnull %as.i.i)
  call void @llvm.lifetime.end.p0(i64 64, ptr nonnull %tmp.i.i)
  %6 = getelementptr i8, ptr %section.sroa.1.0.copyload.i.i, i64 41
  %call28.val = load i8, ptr %6, align 1
  %tobool.i = trunc i8 %call28.val to i1
  br i1 %tobool.i, label %if.then.i.i, label %lor.rhs

lor.rhs:                                          ; preds = %rcu_read_auto_lock.exit
  %rom_device.i = getelementptr inbounds nuw i8, ptr %section.sroa.1.0.copyload.i.i, i64 45
  %7 = load i8, ptr %rom_device.i, align 1
  %tobool.i12 = trunc i8 %7 to i1
  br i1 %tobool.i12, label %land.rhs.i, label %if.then.i.i

land.rhs.i:                                       ; preds = %lor.rhs
  %romd_mode.i = getelementptr inbounds nuw i8, ptr %section.sroa.1.0.copyload.i.i, i64 40
  %8 = load i8, ptr %romd_mode.i, align 8
  %tobool1.i = trunc i8 %8 to i1
  %9 = xor i1 %tobool1.i, true
  br label %if.then.i.i

if.then.i.i:                                      ; preds = %land.rhs.i, %lor.rhs, %rcu_read_auto_lock.exit
  %lnot = phi i1 [ false, %rcu_read_auto_lock.exit ], [ true, %lor.rhs ], [ %9, %land.rhs.i ]
  %call.i.i.i.i = call ptr @get_ptr_rcu_reader() #28
  %depth.i.i.i.i = getelementptr inbounds nuw i8, ptr %call.i.i.i.i, i64 12
  %10 = load i32, ptr %depth.i.i.i.i, align 4
  %cmp.not.i.i.i.i = icmp eq i32 %10, 0
  br i1 %cmp.not.i.i.i.i, label %if.else.i.i.i.i, label %if.end.i.i.i.i

if.else.i.i.i.i:                                  ; preds = %if.then.i.i
  call void @__assert_fail(ptr noundef nonnull @.str.126, ptr noundef nonnull @.str.125, i32 noundef 101, ptr noundef nonnull @__PRETTY_FUNCTION__.rcu_read_unlock) #27
  unreachable

if.end.i.i.i.i:                                   ; preds = %if.then.i.i
  %dec.i.i.i.i = add i32 %10, -1
  store i32 %dec.i.i.i.i, ptr %depth.i.i.i.i, align 4
  %cmp2.not.i.i.i.i = icmp eq i32 %dec.i.i.i.i, 0
  br i1 %cmp2.not.i.i.i.i, label %while.end.i.i.i.i, label %glib_autoptr_cleanup_RCUReadAuto.exit

while.end.i.i.i.i:                                ; preds = %if.end.i.i.i.i
  store atomic i64 0, ptr %call.i.i.i.i release, align 8
  call void asm sideeffect "", "~{memory},~{dirflag},~{fpsr},~{flags}"() #28, !srcloc !22
  fence seq_cst
  %waiting.i.i.i.i = getelementptr inbounds nuw i8, ptr %call.i.i.i.i, i64 8
  %11 = load atomic i8, ptr %waiting.i.i.i.i monotonic, align 8
  %tobool.i.i.i.i = trunc i8 %11 to i1
  br i1 %tobool.i.i.i.i, label %while.end21.i.i.i.i, label %glib_autoptr_cleanup_RCUReadAuto.exit

while.end21.i.i.i.i:                              ; preds = %while.end.i.i.i.i
  store atomic i8 0, ptr %waiting.i.i.i.i monotonic, align 8
  call void @qemu_event_set(ptr noundef nonnull @rcu_gp_event) #28
  br label %glib_autoptr_cleanup_RCUReadAuto.exit

glib_autoptr_cleanup_RCUReadAuto.exit:            ; preds = %if.end.i.i.i.i, %while.end.i.i.i.i, %while.end21.i.i.i.i
  ret i1 %lnot
}